target datalayout = "e-m:e-p270:32:32-p271:32:32-p272:64:64-i64:64-i128:128-f80:128-n8:16:32:64-S128"
target triple = "x86_64-pc-linux-gnu"

%struct._psqlSettings = type { ptr, i32, ptr, i8, ptr, ptr, %struct.printQueryOpt, ptr, ptr, ptr, i8, i8, i32, i32, ptr, ptr, i8, [4 x ptr], i8, i32, ptr, i8, i32, ptr, ptr, i64, i64, i8, ptr, ptr, ptr, i8, i8, i8, i8, i8, i8, i8, i32, i32, i32, i32, i32, i32, i32, i32, ptr, ptr, ptr, i32, i8, i32 }
%struct.printQueryOpt = type { %struct.printTableOpt, ptr, ptr, ptr, i8, ptr, i32 }
%struct.printTableOpt = type { i32, i16, i32, i32, i16, i16, i32, i8, i8, i8, i8, i64, ptr, %struct.separator, %struct.separator, [2 x i8], i8, ptr, i32, i32, i32, i32, i32, i32 }
%struct.separator = type { ptr, i8 }
%struct.PQExpBufferData = type { ptr, i64, i64 }

@pset = external global %struct._psqlSettings, align 8
@stdout = external global ptr, align 8
@.str.252 = private unnamed_addr constant [23 x i8] c"Query buffer is empty.\00", align 1

; Function Attrs: nounwind uwtable
define internal i32 @exec_command_print(ptr noundef %0, i1 noundef zeroext %1, ptr noundef %2, ptr noundef %3) #0 {
  %5 = alloca ptr, align 8
  %6 = alloca i8, align 1
  %7 = alloca ptr, align 8
  %8 = alloca ptr, align 8
  store ptr %0, ptr %5, align 8
  %9 = zext i1 %1 to i8
  store i8 %9, ptr %6, align 1
  store ptr %2, ptr %7, align 8
  store ptr %3, ptr %8, align 8
  %10 = load i8, ptr %6, align 1, !range !4, !noundef !5
  %11 = trunc i8 %10 to i1
  br i1 %11, label %12, label %48

12:                                               ; preds = %4
  %13 = load ptr, ptr %7, align 8
  %14 = icmp ne ptr %13, null
  br i1 %14, label %15, label %25

15:                                               ; preds = %12
  %16 = load ptr, ptr %7, align 8
  %17 = getelementptr inbounds nuw %struct.PQExpBufferData, ptr %16, i32 0, i32 1
  %18 = load i64, ptr %17, align 8
  %19 = icmp ugt i64 %18, 0
  br i1 %19, label %20, label %25

20:                                               ; preds = %15
  %21 = load ptr, ptr %7, align 8
  %22 = getelementptr inbounds nuw %struct.PQExpBufferData, ptr %21, i32 0, i32 0
  %23 = load ptr, ptr %22, align 8
  %24 = call i32 @puts(ptr noundef %23)
  br label %45

25:                                               ; preds = %15, %12
  %26 = load ptr, ptr %8, align 8
  %27 = icmp ne ptr %26, null
  br i1 %27, label %28, label %38

28:                                               ; preds = %25
  %29 = load ptr, ptr %8, align 8
  %30 = getelementptr inbounds nuw %struct.PQExpBufferData, ptr %29, i32 0, i32 1
  %31 = load i64, ptr %30, align 8
  %32 = icmp ugt i64 %31, 0
  br i1 %32, label %33, label %38

33:                                               ; preds = %28
  %34 = load ptr, ptr %8, align 8
  %35 = getelementptr inbounds nuw %struct.PQExpBufferData, ptr %34, i32 0, i32 0
  %36 = load ptr, ptr %35, align 8
  %37 = call i32 @puts(ptr noundef %36)
  br label %44

38:                                               ; preds = %28, %25
  %39 = load i8, ptr getelementptr inbounds nuw (%struct._psqlSettings, ptr @pset, i32 0, i32 33), align 2, !range !4, !noundef !5
  %40 = trunc i8 %39 to i1
  br i1 %40, label %43, label %41

41:                                               ; preds = %38
  %42 = call i32 @puts(ptr noundef @.str.252)
  br label %43

43:                                               ; preds = %41, %38
  br label %44

44:                                               ; preds = %43, %33
  br label %45

45:                                               ; preds = %44, %20
  %46 = load ptr, ptr @stdout, align 8
  %47 = call i32 @fflush(ptr noundef %46)
  br label %48

48:                                               ; preds = %45, %4
  ret i32 2
}