; Function Attrs: nofree nounwind uwtable
define internal fastcc void @exec_command_print(i1 noundef zeroext %0, ptr noundef readonly captures(address_is_null) %1, ptr noundef readonly captures(address_is_null) %2) unnamed_addr #9 {
  br i1 %0, label %4, label %20

4:                                                ; preds = %3
  %.not = icmp eq ptr %1, null
  br i1 %.not, label %8, label %5

5:                                                ; preds = %4
  %6 = getelementptr inbounds nuw i8, ptr %1, i64 8
  %7 = load i64, ptr %6, align 8
  %.not7 = icmp eq i64 %7, 0
  br i1 %.not7, label %8, label %.sink.split.sink.split

8:                                                ; preds = %5, %4
  %.not8 = icmp eq ptr %2, null
  br i1 %.not8, label %12, label %9

9:                                                ; preds = %8
  %10 = getelementptr inbounds nuw i8, ptr %2, i64 8
  %11 = load i64, ptr %10, align 8
  %.not9 = icmp eq i64 %11, 0
  br i1 %.not9, label %12, label %.sink.split.sink.split

12:                                               ; preds = %9, %8
  %13 = load i8, ptr getelementptr inbounds nuw (i8, ptr @pset, i64 402), align 2, !range !4, !noundef !5
  %14 = trunc nuw i8 %13 to i1
  br i1 %14, label %17, label %.sink.split

.sink.split.sink.split:                           ; preds = %9, %5
  %.sink1 = phi ptr [ %1, %5 ], [ %2, %9 ]
  %15 = load ptr, ptr %.sink1, align 8
  br label %.sink.split

.sink.split:                                      ; preds = %.sink.split.sink.split, %12
  %.sink = phi ptr [ @.str.252, %12 ], [ %15, %.sink.split.sink.split ]
  %16 = tail call i32 @puts(ptr noundef nonnull dereferenceable(1) %.sink)
  br label %17

17:                                               ; preds = %.sink.split, %12
  %18 = load ptr, ptr @stdout, align 8
  %19 = tail call i32 @fflush(ptr noundef %18)
  br label %20

20:                                               ; preds = %17, %3
  ret void
}